target datalayout = "e-m:e-p270:32:32-p271:32:32-p272:64:64-i64:64-i128:128-f80:128-n8:16:32:64-S128"
target triple = "x86_64-pc-linux-gnu"

%struct._zend_executor_globals = type { %struct._zval_struct, %struct._zval_struct, [32 x ptr], ptr, ptr, %struct._zend_array, %struct._zend_array, ptr, i32, i32, ptr, ptr, ptr, ptr, ptr, ptr, i64, ptr, ptr, i32, i32, i64, i32, i32, i32, i8, i8, %struct.zend_atomic_bool_s, %struct.zend_atomic_bool_s, ptr, i64, ptr, ptr, %struct._zend_array, %struct._zend_array, i32, i8, %struct._zval_struct, %struct._zval_struct, %struct._zend_stack, %struct._zend_stack, %struct._zend_stack, ptr, i32, i32, i64, ptr, ptr, ptr, %struct._zend_objects_store, ptr, ptr, ptr, [3 x %struct._zend_op], ptr, i8, i8, i64, i32, i32, ptr, [16 x %struct._HashTableIterator], ptr, %union._zend_function, %struct._zend_op, %struct._zend_array, i64, %struct.zend_get_gc_buffer, ptr, ptr, ptr, i64, i8, i32, ptr, ptr, i64, %struct._zend_call_stack, i64, i64, [6 x ptr] }
%struct.zend_atomic_bool_s = type { i8 }
%struct._zval_struct = type { %union._zend_value, %union.anon, %union.anon.2 }
%union._zend_value = type { i64 }
%union.anon = type { i32 }
%union.anon.2 = type { i32 }
%struct._zend_stack = type { i32, i32, i32, ptr }
%struct._zend_objects_store = type { ptr, i32, i32, i32 }
%struct._HashTableIterator = type { ptr, i32, i32 }
%union._zend_function = type { %struct._zend_op_array }
%struct._zend_op_array = type { i8, [3 x i8], i32, ptr, ptr, ptr, i32, i32, ptr, ptr, ptr, ptr, i32, i32, i32, i32, ptr, ptr, ptr, ptr, ptr, i32, i32, ptr, ptr, ptr, i32, i32, i32, i32, ptr, ptr, [6 x ptr] }
%struct._zend_op = type { ptr, %union._znode_op, %union._znode_op, %union._znode_op, i32, i32, i8, i8, i8, i8 }
%union._znode_op = type { i32 }
%struct._zend_array = type { %struct._zend_refcounted_h, %union.anon.4, i32, %union.anon.6, i32, i32, i32, i32, i64, ptr }
%struct._zend_refcounted_h = type { i32, %union.anon.3 }
%union.anon.3 = type { i32 }
%union.anon.4 = type { i32 }
%union.anon.6 = type { ptr }
%struct.zend_get_gc_buffer = type { ptr, ptr, ptr }
%struct._zend_call_stack = type { ptr, i64 }
%struct._zend_execute_data = type { ptr, ptr, ptr, ptr, %struct._zval_struct, ptr, ptr, ptr, ptr }
%struct._spl_heap_object = type { ptr, i32, ptr, ptr, %struct._zend_object }
%struct._zend_object = type { %struct._zend_refcounted_h, i32, ptr, ptr, ptr, [1 x %struct._zval_struct] }
%struct._spl_ptr_heap = type { ptr, ptr, ptr, ptr, i32, i32, i64, i64 }
%struct._spl_pqueue_elem = type { %struct._zval_struct, %struct._zval_struct }
%struct._zend_refcounted = type { %struct._zend_refcounted_h }

@executor_globals = external global %struct._zend_executor_globals, align 8
@spl_ce_RuntimeException = external global ptr, align 8
@.str = private unnamed_addr constant [58 x i8] c"Heap is corrupted, heap properties are no longer ensured.\00", align 1

; Function Attrs: nounwind uwtable
define internal ptr @spl_heap_from_obj(ptr noundef %0) #0 {
  %2 = alloca ptr, align 8
  store ptr %0, ptr %2, align 8
  %3 = load ptr, ptr %2, align 8
  %4 = getelementptr inbounds i8, ptr %3, i64 -32
  ret ptr %4
}

; Function Attrs: nounwind uwtable
define hidden void @zim_SplPriorityQueue_insert(ptr noundef %0, ptr noundef %1) #0 {
  %3 = alloca ptr, align 8
  %4 = alloca ptr, align 8
  %5 = alloca ptr, align 8
  %6 = alloca ptr, align 8
  %7 = alloca ptr, align 8
  %8 = alloca ptr, align 8
  %9 = alloca ptr, align 8
  %10 = alloca i8, align 1
  %11 = alloca ptr, align 8
  %12 = alloca ptr, align 8
  %13 = alloca i8, align 1
  %14 = alloca ptr, align 8
  %15 = alloca ptr, align 8
  %16 = alloca ptr, align 8
  %17 = alloca ptr, align 8
  %18 = alloca ptr, align 8
  %19 = alloca %struct._spl_pqueue_elem, align 8
  %20 = alloca i32, align 4
  %21 = alloca i32, align 4
  %22 = alloca i32, align 4
  %23 = alloca i32, align 4
  %24 = alloca i32, align 4
  %25 = alloca ptr, align 8
  %26 = alloca ptr, align 8
  %27 = alloca i32, align 4
  %28 = alloca ptr, align 8
  %29 = alloca i8, align 1
  %30 = alloca i8, align 1
  %31 = alloca i32, align 4
  %32 = alloca ptr, align 8
  %33 = alloca ptr, align 8
  %34 = alloca ptr, align 8
  %35 = alloca i32, align 4
  %36 = alloca ptr, align 8
  %37 = alloca ptr, align 8
  %38 = alloca ptr, align 8
  %39 = alloca i32, align 4
  %40 = alloca i32, align 4
  %41 = alloca ptr, align 8
  store ptr %0, ptr %14, align 8
  store ptr %1, ptr %15, align 8
  br label %42

42:                                               ; preds = %2
  store i32 0, ptr %20, align 4
  store i32 2, ptr %21, align 4
  store i32 2, ptr %22, align 4
  %43 = load ptr, ptr %14, align 8
  %44 = getelementptr inbounds %struct._zend_execute_data, ptr %43, i32 0, i32 4
  %45 = getelementptr inbounds %struct._zval_struct, ptr %44, i32 0, i32 2
  %46 = load i32, ptr %45, align 4
  store i32 %46, ptr %23, align 4
  store i32 0, ptr %24, align 4
  store ptr null, ptr %26, align 8
  store i32 0, ptr %27, align 4
  store ptr null, ptr %28, align 8
  store i8 0, ptr %29, align 1
  store i8 0, ptr %30, align 1
  store i32 0, ptr %31, align 4
  br label %47

47:                                               ; preds = %42
  %48 = load i32, ptr %23, align 4
  %49 = load i32, ptr %21, align 4
  %50 = icmp ult i32 %48, %49
  %51 = xor i1 %50, true
  %52 = xor i1 %51, true
  %53 = zext i1 %52 to i32
  %54 = sext i32 %53 to i64
  %55 = icmp ne i64 %54, 0
  br i1 %55, label %65, label %56

56:                                               ; preds = %47
  %57 = load i32, ptr %23, align 4
  %58 = load i32, ptr %22, align 4
  %59 = icmp ugt i32 %57, %58
  %60 = xor i1 %59, true
  %61 = xor i1 %60, true
  %62 = zext i1 %61 to i32
  %63 = sext i32 %62 to i64
  %64 = icmp ne i64 %63, 0
  br i1 %64, label %65, label %68

65:                                               ; preds = %56, %47
  %66 = load i32, ptr %21, align 4
  %67 = load i32, ptr %22, align 4
  call void @zend_wrong_parameters_count_error(i32 noundef %66, i32 noundef %67)
  store i32 1, ptr %31, align 4
  br label %189

68:                                               ; preds = %56
  %69 = load ptr, ptr %14, align 8
  %70 = getelementptr inbounds %struct._zval_struct, ptr %69, i64 4
  store ptr %70, ptr %25, align 8
  %71 = load i32, ptr %24, align 4
  %72 = add i32 %71, 1
  store i32 %72, ptr %24, align 4
  %73 = load i32, ptr %24, align 4
  %74 = load i32, ptr %21, align 4
  %75 = icmp ule i32 %73, %74
  br i1 %75, label %81, label %76

76:                                               ; preds = %68
  %77 = load i8, ptr %30, align 1
  %78 = trunc i8 %77 to i1
  %79 = zext i1 %78 to i32
  %80 = icmp eq i32 %79, 1
  br label %81

81:                                               ; preds = %76, %68
  %82 = phi i1 [ true, %68 ], [ %80, %76 ]
  call void @llvm.assume(i1 %82)
  %83 = load i32, ptr %24, align 4
  %84 = load i32, ptr %21, align 4
  %85 = icmp ugt i32 %83, %84
  br i1 %85, label %91, label %86

86:                                               ; preds = %81
  %87 = load i8, ptr %30, align 1
  %88 = trunc i8 %87 to i1
  %89 = zext i1 %88 to i32
  %90 = icmp eq i32 %89, 0
  br label %91

91:                                               ; preds = %86, %81
  %92 = phi i1 [ true, %81 ], [ %90, %86 ]
  call void @llvm.assume(i1 %92)
  %93 = load i8, ptr %30, align 1
  %94 = trunc i8 %93 to i1
  br i1 %94, label %95, label %106

95:                                               ; preds = %91
  %96 = load i32, ptr %24, align 4
  %97 = load i32, ptr %23, align 4
  %98 = icmp ugt i32 %96, %97
  %99 = xor i1 %98, true
  %100 = xor i1 %99, true
  %101 = zext i1 %100 to i32
  %102 = sext i32 %101 to i64
  %103 = icmp ne i64 %102, 0
  br i1 %103, label %104, label %105

104:                                              ; preds = %95
  br label %189

105:                                              ; preds = %95
  br label %106

106:                                              ; preds = %105, %91
  %107 = load ptr, ptr %25, align 8
  %108 = getelementptr inbounds %struct._zval_struct, ptr %107, i32 1
  store ptr %108, ptr %25, align 8
  %109 = load ptr, ptr %25, align 8
  store ptr %109, ptr %26, align 8
  %110 = load ptr, ptr %26, align 8
  store ptr %110, ptr %8, align 8
  store ptr %16, ptr %9, align 8
  store i8 0, ptr %10, align 1
  %111 = load i8, ptr %10, align 1
  %112 = trunc i8 %111 to i1
  br i1 %112, label %113, label %121

113:                                              ; preds = %106
  %114 = load ptr, ptr %8, align 8
  store ptr %114, ptr %5, align 8
  %115 = load ptr, ptr %5, align 8
  %116 = getelementptr inbounds %struct._zval_struct, ptr %115, i32 0, i32 1
  %117 = load i8, ptr %116, align 8
  %118 = zext i8 %117 to i32
  %119 = icmp eq i32 %118, 1
  br i1 %119, label %120, label %121

120:                                              ; preds = %113
  br label %123

121:                                              ; preds = %113, %106
  %122 = load ptr, ptr %8, align 8
  br label %123

123:                                              ; preds = %121, %120
  %124 = phi ptr [ null, %120 ], [ %122, %121 ]
  %125 = load ptr, ptr %9, align 8
  store ptr %124, ptr %125, align 8
  %126 = load i32, ptr %24, align 4
  %127 = add i32 %126, 1
  store i32 %127, ptr %24, align 4
  %128 = load i32, ptr %24, align 4
  %129 = load i32, ptr %21, align 4
  %130 = icmp ule i32 %128, %129
  br i1 %130, label %136, label %131

131:                                              ; preds = %123
  %132 = load i8, ptr %30, align 1
  %133 = trunc i8 %132 to i1
  %134 = zext i1 %133 to i32
  %135 = icmp eq i32 %134, 1
  br label %136

136:                                              ; preds = %131, %123
  %137 = phi i1 [ true, %123 ], [ %135, %131 ]
  call void @llvm.assume(i1 %137)
  %138 = load i32, ptr %24, align 4
  %139 = load i32, ptr %21, align 4
  %140 = icmp ugt i32 %138, %139
  br i1 %140, label %146, label %141

141:                                              ; preds = %136
  %142 = load i8, ptr %30, align 1
  %143 = trunc i8 %142 to i1
  %144 = zext i1 %143 to i32
  %145 = icmp eq i32 %144, 0
  br label %146

146:                                              ; preds = %141, %136
  %147 = phi i1 [ true, %136 ], [ %145, %141 ]
  call void @llvm.assume(i1 %147)
  %148 = load i8, ptr %30, align 1
  %149 = trunc i8 %148 to i1
  br i1 %149, label %150, label %161

150:                                              ; preds = %146
  %151 = load i32, ptr %24, align 4
  %152 = load i32, ptr %23, align 4
  %153 = icmp ugt i32 %151, %152
  %154 = xor i1 %153, true
  %155 = xor i1 %154, true
  %156 = zext i1 %155 to i32
  %157 = sext i32 %156 to i64
  %158 = icmp ne i64 %157, 0
  br i1 %158, label %159, label %160

159:                                              ; preds = %150
  br label %189

160:                                              ; preds = %150
  br label %161

161:                                              ; preds = %160, %146
  %162 = load ptr, ptr %25, align 8
  %163 = getelementptr inbounds %struct._zval_struct, ptr %162, i32 1
  store ptr %163, ptr %25, align 8
  %164 = load ptr, ptr %25, align 8
  store ptr %164, ptr %26, align 8
  %165 = load ptr, ptr %26, align 8
  store ptr %165, ptr %11, align 8
  store ptr %17, ptr %12, align 8
  store i8 0, ptr %13, align 1
  %166 = load i8, ptr %13, align 1
  %167 = trunc i8 %166 to i1
  br i1 %167, label %168, label %176

168:                                              ; preds = %161
  %169 = load ptr, ptr %11, align 8
  store ptr %169, ptr %4, align 8
  %170 = load ptr, ptr %4, align 8
  %171 = getelementptr inbounds %struct._zval_struct, ptr %170, i32 0, i32 1
  %172 = load i8, ptr %171, align 8
  %173 = zext i8 %172 to i32
  %174 = icmp eq i32 %173, 1
  br i1 %174, label %175, label %176

175:                                              ; preds = %168
  br label %178

176:                                              ; preds = %168, %161
  %177 = load ptr, ptr %11, align 8
  br label %178

178:                                              ; preds = %176, %175
  %179 = phi ptr [ null, %175 ], [ %177, %176 ]
  %180 = load ptr, ptr %12, align 8
  store ptr %179, ptr %180, align 8
  %181 = load i32, ptr %24, align 4
  %182 = load i32, ptr %22, align 4
  %183 = icmp eq i32 %181, %182
  br i1 %183, label %187, label %184

184:                                              ; preds = %178
  %185 = load i32, ptr %22, align 4
  %186 = icmp eq i32 %185, -1
  br label %187

187:                                              ; preds = %184, %178
  %188 = phi i1 [ true, %178 ], [ %186, %184 ]
  call void @llvm.assume(i1 %188)
  br label %189

189:                                              ; preds = %187, %159, %104, %65
  %190 = load i32, ptr %31, align 4
  %191 = icmp ne i32 %190, 0
  %192 = xor i1 %191, true
  %193 = xor i1 %192, true
  %194 = zext i1 %193 to i32
  %195 = sext i32 %194 to i64
  %196 = icmp ne i64 %195, 0
  br i1 %196, label %197, label %203

197:                                              ; preds = %189
  %198 = load i32, ptr %31, align 4
  %199 = load i32, ptr %24, align 4
  %200 = load ptr, ptr %28, align 8
  %201 = load i32, ptr %27, align 4
  %202 = load ptr, ptr %26, align 8
  call void @zend_wrong_parameter_error(i32 noundef %198, i32 noundef %199, ptr noundef %200, i32 noundef %201, ptr noundef %202)
  br label %338

203:                                              ; preds = %189
  br label %204

204:                                              ; preds = %203
  %205 = load ptr, ptr %14, align 8
  %206 = getelementptr inbounds %struct._zend_execute_data, ptr %205, i32 0, i32 4
  %207 = getelementptr inbounds %struct._zval_struct, ptr %206, i32 0, i32 0
  %208 = load ptr, ptr %207, align 8
  %209 = call ptr @spl_heap_from_obj(ptr noundef %208)
  store ptr %209, ptr %18, align 8
  %210 = load ptr, ptr %18, align 8
  %211 = getelementptr inbounds %struct._spl_heap_object, ptr %210, i32 0, i32 0
  %212 = load ptr, ptr %211, align 8
  %213 = getelementptr inbounds %struct._spl_ptr_heap, ptr %212, i32 0, i32 5
  %214 = load i32, ptr %213, align 4
  %215 = and i32 %214, 1
  %216 = icmp ne i32 %215, 0
  br i1 %216, label %217, label %224

217:                                              ; preds = %204
  %218 = load ptr, ptr @spl_ce_RuntimeException, align 8
  %219 = call ptr @zend_throw_exception(ptr noundef %218, ptr noundef @.str, i64 noundef 0)
  br label %220

220:                                              ; preds = %217
  %221 = load ptr, ptr getelementptr inbounds (%struct._zend_executor_globals, ptr @executor_globals, i32 0, i32 50), align 8
  %222 = icmp ne ptr %221, null
  call void @llvm.assume(i1 %222)
  br label %338

223:                                              ; No predecessors!
  br label %224

224:                                              ; preds = %223, %204
  br label %225

225:                                              ; preds = %224
  %226 = getelementptr inbounds %struct._spl_pqueue_elem, ptr %19, i32 0, i32 0
  store ptr %226, ptr %32, align 8
  %227 = load ptr, ptr %16, align 8
  store ptr %227, ptr %33, align 8
  %228 = load ptr, ptr %33, align 8
  %229 = getelementptr inbounds %struct._zval_struct, ptr %228, i32 0, i32 0
  %230 = load ptr, ptr %229, align 8
  store ptr %230, ptr %34, align 8
  %231 = load ptr, ptr %33, align 8
  %232 = getelementptr inbounds %struct._zval_struct, ptr %231, i32 0, i32 1
  %233 = load i32, ptr %232, align 8
  store i32 %233, ptr %35, align 4
  br label %234

234:                                              ; preds = %225
  %235 = load ptr, ptr %34, align 8
  %236 = load ptr, ptr %32, align 8
  %237 = getelementptr inbounds %struct._zval_struct, ptr %236, i32 0, i32 0
  store ptr %235, ptr %237, align 8
  %238 = load i32, ptr %35, align 4
  %239 = load ptr, ptr %32, align 8
  %240 = getelementptr inbounds %struct._zval_struct, ptr %239, i32 0, i32 1
  store i32 %238, ptr %240, align 8
  br label %241

241:                                              ; preds = %234
  %242 = load i32, ptr %35, align 4
  %243 = and i32 %242, 65280
  %244 = icmp ne i32 %243, 0
  br i1 %244, label %245, label %251

245:                                              ; preds = %241
  %246 = load ptr, ptr %34, align 8
  %247 = getelementptr inbounds %struct._zend_refcounted, ptr %246, i32 0, i32 0
  store ptr %247, ptr %6, align 8
  %248 = load ptr, ptr %6, align 8
  %249 = load i32, ptr %248, align 4
  %250 = add i32 %249, 1
  store i32 %250, ptr %248, align 4
  br label %251

251:                                              ; preds = %245, %241
  br label %252

252:                                              ; preds = %251
  br label %253

253:                                              ; preds = %252
  %254 = getelementptr inbounds %struct._spl_pqueue_elem, ptr %19, i32 0, i32 1
  store ptr %254, ptr %36, align 8
  %255 = load ptr, ptr %17, align 8
  store ptr %255, ptr %37, align 8
  %256 = load ptr, ptr %37, align 8
  %257 = getelementptr inbounds %struct._zval_struct, ptr %256, i32 0, i32 0
  %258 = load ptr, ptr %257, align 8
  store ptr %258, ptr %38, align 8
  %259 = load ptr, ptr %37, align 8
  %260 = getelementptr inbounds %struct._zval_struct, ptr %259, i32 0, i32 1
  %261 = load i32, ptr %260, align 8
  store i32 %261, ptr %39, align 4
  br label %262

262:                                              ; preds = %253
  %263 = load ptr, ptr %38, align 8
  %264 = load ptr, ptr %36, align 8
  %265 = getelementptr inbounds %struct._zval_struct, ptr %264, i32 0, i32 0
  store ptr %263, ptr %265, align 8
  %266 = load i32, ptr %39, align 4
  %267 = load ptr, ptr %36, align 8
  %268 = getelementptr inbounds %struct._zval_struct, ptr %267, i32 0, i32 1
  store i32 %266, ptr %268, align 8
  br label %269

269:                                              ; preds = %262
  %270 = load i32, ptr %39, align 4
  %271 = and i32 %270, 65280
  %272 = icmp ne i32 %271, 0
  br i1 %272, label %273, label %279

273:                                              ; preds = %269
  %274 = load ptr, ptr %38, align 8
  %275 = getelementptr inbounds %struct._zend_refcounted, ptr %274, i32 0, i32 0
  store ptr %275, ptr %7, align 8
  %276 = load ptr, ptr %7, align 8
  %277 = load i32, ptr %276, align 4
  %278 = add i32 %277, 1
  store i32 %278, ptr %276, align 4
  br label %279

279:                                              ; preds = %273, %269
  br label %280

280:                                              ; preds = %279
  %281 = load ptr, ptr %18, align 8
  %282 = getelementptr inbounds %struct._spl_heap_object, ptr %281, i32 0, i32 2
  %283 = load ptr, ptr %282, align 8
  %284 = icmp ne ptr %283, null
  br i1 %284, label %327, label %285

285:                                              ; preds = %280
  %286 = getelementptr inbounds %struct._spl_pqueue_elem, ptr %19, i32 0, i32 1
  store ptr %286, ptr %3, align 8
  %287 = load ptr, ptr %3, align 8
  %288 = getelementptr inbounds %struct._zval_struct, ptr %287, i32 0, i32 1
  %289 = load i8, ptr %288, align 8
  %290 = zext i8 %289 to i32
  store i32 %290, ptr %40, align 4
  %291 = load i32, ptr %40, align 4
  %292 = icmp eq i32 %291, 4
  br i1 %292, label %293, label %294

293:                                              ; preds = %285
  br label %298

294:                                              ; preds = %285
  %295 = load i32, ptr %40, align 4
  %296 = icmp eq i32 %295, 5
  %297 = select i1 %296, ptr @spl_ptr_pqueue_elem_cmp_double, ptr @spl_ptr_pqueue_elem_cmp
  br label %298

298:                                              ; preds = %294, %293
  %299 = phi ptr [ @spl_ptr_pqueue_elem_cmp_long, %293 ], [ %297, %294 ]
  store ptr %299, ptr %41, align 8
  %300 = load ptr, ptr %18, align 8
  %301 = getelementptr inbounds %struct._spl_heap_object, ptr %300, i32 0, i32 0
  %302 = load ptr, ptr %301, align 8
  %303 = getelementptr inbounds %struct._spl_ptr_heap, ptr %302, i32 0, i32 4
  %304 = load i32, ptr %303, align 8
  %305 = icmp eq i32 %304, 0
  br i1 %305, label %306, label %312

306:                                              ; preds = %298
  %307 = load ptr, ptr %41, align 8
  %308 = load ptr, ptr %18, align 8
  %309 = getelementptr inbounds %struct._spl_heap_object, ptr %308, i32 0, i32 0
  %310 = load ptr, ptr %309, align 8
  %311 = getelementptr inbounds %struct._spl_ptr_heap, ptr %310, i32 0, i32 3
  store ptr %307, ptr %311, align 8
  br label %326

312:                                              ; preds = %298
  %313 = load ptr, ptr %41, align 8
  %314 = load ptr, ptr %18, align 8
  %315 = getelementptr inbounds %struct._spl_heap_object, ptr %314, i32 0, i32 0
  %316 = load ptr, ptr %315, align 8
  %317 = getelementptr inbounds %struct._spl_ptr_heap, ptr %316, i32 0, i32 3
  %318 = load ptr, ptr %317, align 8
  %319 = icmp ne ptr %313, %318
  br i1 %319, label %320, label %325

320:                                              ; preds = %312
  %321 = load ptr, ptr %18, align 8
  %322 = getelementptr inbounds %struct._spl_heap_object, ptr %321, i32 0, i32 0
  %323 = load ptr, ptr %322, align 8
  %324 = getelementptr inbounds %struct._spl_ptr_heap, ptr %323, i32 0, i32 3
  store ptr @spl_ptr_pqueue_elem_cmp, ptr %324, align 8
  br label %325

325:                                              ; preds = %320, %312
  br label %326

326:                                              ; preds = %325, %306
  br label %327

327:                                              ; preds = %326, %280
  %328 = load ptr, ptr %18, align 8
  %329 = getelementptr inbounds %struct._spl_heap_object, ptr %328, i32 0, i32 0
  %330 = load ptr, ptr %329, align 8
  %331 = load ptr, ptr %14, align 8
  %332 = getelementptr inbounds %struct._zend_execute_data, ptr %331, i32 0, i32 4
  call void @spl_ptr_heap_insert(ptr noundef %330, ptr noundef %19, ptr noundef %332)
  br label %333

333:                                              ; preds = %327
  br label %334

334:                                              ; preds = %333
  %335 = load ptr, ptr %15, align 8
  %336 = getelementptr inbounds %struct._zval_struct, ptr %335, i32 0, i32 1
  store i32 3, ptr %336, align 8
  br label %337

337:                                              ; preds = %334
  br label %338

338:                                              ; preds = %337, %220, %197
  ret void
}