; Function Attrs: nounwind uwtable
define hidden void @zim_SplPriorityQueue_insert(ptr noundef %0, ptr nocapture noundef writeonly %1) #0 {
  %3 = alloca %struct._spl_pqueue_elem, align 8
  %4 = getelementptr inbounds i8, ptr %0, i64 32
  %5 = getelementptr inbounds i8, ptr %0, i64 44
  %6 = load i32, ptr %5, align 4
  %.not = icmp eq i32 %6, 2
  br i1 %.not, label %8, label %7

7:                                                ; preds = %2
  tail call void @zend_wrong_parameters_count_error(i32 noundef 2, i32 noundef 2) #14
  tail call void @zend_wrong_parameter_error(i32 noundef 1, i32 noundef 0, ptr noundef null, i32 noundef 0, ptr noundef null) #14
  br label %60

8:                                                ; preds = %2
  %9 = getelementptr inbounds i8, ptr %0, i64 96
  %10 = load ptr, ptr %4, align 8
  %11 = getelementptr inbounds i8, ptr %10, i64 -32
  %12 = load ptr, ptr %11, align 8
  %13 = getelementptr inbounds i8, ptr %12, i64 36
  %14 = load i32, ptr %13, align 4
  %15 = and i32 %14, 1
  %.not92 = icmp eq i32 %15, 0
  br i1 %.not92, label %21, label %16

16:                                               ; preds = %8
  %17 = load ptr, ptr @spl_ce_RuntimeException, align 8
  %18 = tail call ptr @zend_throw_exception(ptr noundef %17, ptr noundef nonnull @.str, i64 noundef 0) #14
  %19 = load ptr, ptr getelementptr inbounds (%struct._zend_executor_globals, ptr @executor_globals, i64 0, i32 50), align 8
  %20 = icmp ne ptr %19, null
  tail call void @llvm.assume(i1 %20)
  br label %60

21:                                               ; preds = %8
  %22 = getelementptr inbounds i8, ptr %0, i64 80
  %23 = load ptr, ptr %22, align 8
  %24 = getelementptr inbounds i8, ptr %0, i64 88
  %25 = load i32, ptr %24, align 8
  store ptr %23, ptr %3, align 8
  %26 = getelementptr inbounds i8, ptr %3, i64 8
  store i32 %25, ptr %26, align 8
  %27 = and i32 %25, 65280
  %.not93 = icmp eq i32 %27, 0
  br i1 %.not93, label %31, label %28

28:                                               ; preds = %21
  %29 = load i32, ptr %23, align 4
  %30 = add i32 %29, 1
  store i32 %30, ptr %23, align 4
  br label %31

31:                                               ; preds = %28, %21
  %32 = getelementptr inbounds i8, ptr %3, i64 16
  %33 = load ptr, ptr %9, align 8
  %34 = getelementptr inbounds i8, ptr %0, i64 104
  %35 = load i32, ptr %34, align 8
  store ptr %33, ptr %32, align 8
  %36 = getelementptr inbounds i8, ptr %3, i64 24
  store i32 %35, ptr %36, align 8
  %37 = and i32 %35, 65280
  %.not94 = icmp eq i32 %37, 0
  %38 = trunc i32 %35 to i8
  br i1 %.not94, label %42, label %39

39:                                               ; preds = %31
  %40 = load i32, ptr %33, align 4
  %41 = add i32 %40, 1
  store i32 %41, ptr %33, align 4
  br label %42

42:                                               ; preds = %31, %39
  %43 = getelementptr inbounds i8, ptr %10, i64 -16
  %44 = load ptr, ptr %43, align 8
  %.not95 = icmp eq ptr %44, null
  br i1 %.not95, label %45, label %57

45:                                               ; preds = %42
  %46 = icmp eq i8 %38, 4
  %47 = icmp eq i8 %38, 5
  %48 = select i1 %47, ptr @spl_ptr_pqueue_elem_cmp_double, ptr @spl_ptr_pqueue_elem_cmp
  %49 = select i1 %46, ptr @spl_ptr_pqueue_elem_cmp_long, ptr %48
  %50 = load ptr, ptr %11, align 8
  %51 = getelementptr inbounds i8, ptr %50, i64 32
  %52 = load i32, ptr %51, align 8
  %53 = icmp eq i32 %52, 0
  %54 = getelementptr inbounds i8, ptr %50, i64 24
  br i1 %53, label %.sink.split, label %55

55:                                               ; preds = %45
  %56 = load ptr, ptr %54, align 8
  %.not96 = icmp eq ptr %49, %56
  br i1 %.not96, label %57, label %.sink.split

.sink.split:                                      ; preds = %55, %45
  %.sink = phi ptr [ %49, %45 ], [ @spl_ptr_pqueue_elem_cmp, %55 ]
  store ptr %.sink, ptr %54, align 8
  br label %57

57:                                               ; preds = %.sink.split, %55, %42
  %58 = load ptr, ptr %11, align 8
  call fastcc void @spl_ptr_heap_insert(ptr noundef %58, ptr noundef nonnull %3, ptr noundef nonnull %4)
  %59 = getelementptr inbounds i8, ptr %1, i64 8
  store i32 3, ptr %59, align 8
  br label %60

60:                                               ; preds = %57, %16, %7
  ret void
}